target datalayout = "e-m:e-p270:32:32-p271:32:32-p272:64:64-i64:64-i128:128-f80:128-n8:16:32:64-S128"
target triple = "x86_64-pc-linux-gnu"

%struct.ring_buf = type { ptr, i64, i64, i64 }

@.str.1 = private unnamed_addr constant [39 x i8] c"../openssl/include/internal/ring_buf.h\00", align 1

; Function Attrs: inlinehint nounwind uwtable
define internal i64 @ring_buf_avail(ptr noundef %0) #3 {
  %2 = alloca ptr, align 8
  store ptr %0, ptr %2, align 8, !tbaa !22
  %3 = load ptr, ptr %2, align 8, !tbaa !22
  %4 = getelementptr inbounds nuw %struct.ring_buf, ptr %3, i32 0, i32 1
  %5 = load i64, ptr %4, align 8, !tbaa !25
  %6 = load ptr, ptr %2, align 8, !tbaa !22
  %7 = call i64 @ring_buf_used(ptr noundef %6)
  %8 = sub i64 %5, %7
  ret i64 %8
}

; Function Attrs: inlinehint nounwind uwtable
define internal void @ring_buf_destroy(ptr noundef %0, i32 noundef %1) #3 {
  %3 = alloca ptr, align 8
  %4 = alloca i32, align 4
  store ptr %0, ptr %3, align 8, !tbaa !22
  store i32 %1, ptr %4, align 4, !tbaa !28
  %5 = load i32, ptr %4, align 4, !tbaa !28
  %6 = icmp ne i32 %5, 0
  br i1 %6, label %7, label %14

7:                                                ; preds = %2
  %8 = load ptr, ptr %3, align 8, !tbaa !22
  %9 = getelementptr inbounds nuw %struct.ring_buf, ptr %8, i32 0, i32 0
  %10 = load ptr, ptr %9, align 8, !tbaa !24
  %11 = load ptr, ptr %3, align 8, !tbaa !22
  %12 = getelementptr inbounds nuw %struct.ring_buf, ptr %11, i32 0, i32 1
  %13 = load i64, ptr %12, align 8, !tbaa !25
  call void @CRYPTO_clear_free(ptr noundef %10, i64 noundef %13, ptr noundef @.str.1, i32 noundef 58)
  br label %18

14:                                               ; preds = %2
  %15 = load ptr, ptr %3, align 8, !tbaa !22
  %16 = getelementptr inbounds nuw %struct.ring_buf, ptr %15, i32 0, i32 0
  %17 = load ptr, ptr %16, align 8, !tbaa !24
  call void @CRYPTO_free(ptr noundef %17, ptr noundef @.str.1, i32 noundef 60)
  br label %18

18:                                               ; preds = %14, %7
  %19 = load ptr, ptr %3, align 8, !tbaa !22
  %20 = getelementptr inbounds nuw %struct.ring_buf, ptr %19, i32 0, i32 0
  store ptr null, ptr %20, align 8, !tbaa !24
  %21 = load ptr, ptr %3, align 8, !tbaa !22
  %22 = getelementptr inbounds nuw %struct.ring_buf, ptr %21, i32 0, i32 1
  store i64 0, ptr %22, align 8, !tbaa !25
  ret void
}

; Function Attrs: inlinehint nounwind uwtable
define internal i64 @ring_buf_push(ptr noundef %0, ptr noundef %1, i64 noundef %2) #3 {
  %4 = alloca ptr, align 8
  %5 = alloca ptr, align 8
  %6 = alloca i64, align 8
  %7 = alloca i64, align 8
  %8 = alloca i64, align 8
  %9 = alloca i64, align 8
  %10 = alloca i64, align 8
  %11 = alloca ptr, align 8
  store ptr %0, ptr %4, align 8, !tbaa !22
  store ptr %1, ptr %5, align 8, !tbaa !29
  store i64 %2, ptr %6, align 8, !tbaa !10
  call void @llvm.lifetime.start.p0(i64 8, ptr %7) #8
  store i64 0, ptr %7, align 8, !tbaa !10
  call void @llvm.lifetime.start.p0(i64 8, ptr %8) #8
  call void @llvm.lifetime.start.p0(i64 8, ptr %9) #8
  call void @llvm.lifetime.start.p0(i64 8, ptr %10) #8
  call void @llvm.lifetime.start.p0(i64 8, ptr %11) #8
  %12 = load ptr, ptr %4, align 8, !tbaa !22
  %13 = getelementptr inbounds nuw %struct.ring_buf, ptr %12, i32 0, i32 0
  %14 = load ptr, ptr %13, align 8, !tbaa !24
  store ptr %14, ptr %11, align 8, !tbaa !29
  br label %15

15:                                               ; preds = %57, %3
  %16 = load ptr, ptr %4, align 8, !tbaa !22
  %17 = call i64 @ring_buf_avail(ptr noundef %16)
  store i64 %17, ptr %8, align 8, !tbaa !10
  %18 = load i64, ptr %6, align 8, !tbaa !10
  %19 = load i64, ptr %8, align 8, !tbaa !10
  %20 = icmp ugt i64 %18, %19
  br i1 %20, label %21, label %23

21:                                               ; preds = %15
  %22 = load i64, ptr %8, align 8, !tbaa !10
  store i64 %22, ptr %6, align 8, !tbaa !10
  br label %23

23:                                               ; preds = %21, %15
  %24 = load i64, ptr %6, align 8, !tbaa !10
  %25 = load ptr, ptr %4, align 8, !tbaa !22
  %26 = getelementptr inbounds nuw %struct.ring_buf, ptr %25, i32 0, i32 2
  %27 = load i64, ptr %26, align 8, !tbaa !27
  %28 = sub i64 4611686018427387904, %27
  %29 = icmp ugt i64 %24, %28
  br i1 %29, label %30, label %35

30:                                               ; preds = %23
  %31 = load ptr, ptr %4, align 8, !tbaa !22
  %32 = getelementptr inbounds nuw %struct.ring_buf, ptr %31, i32 0, i32 2
  %33 = load i64, ptr %32, align 8, !tbaa !27
  %34 = sub i64 4611686018427387904, %33
  store i64 %34, ptr %6, align 8, !tbaa !10
  br label %35

35:                                               ; preds = %30, %23
  %36 = load i64, ptr %6, align 8, !tbaa !10
  %37 = icmp eq i64 %36, 0
  br i1 %37, label %38, label %39

38:                                               ; preds = %35
  br label %77

39:                                               ; preds = %35
  %40 = load ptr, ptr %4, align 8, !tbaa !22
  %41 = getelementptr inbounds nuw %struct.ring_buf, ptr %40, i32 0, i32 2
  %42 = load i64, ptr %41, align 8, !tbaa !27
  %43 = load ptr, ptr %4, align 8, !tbaa !22
  %44 = getelementptr inbounds nuw %struct.ring_buf, ptr %43, i32 0, i32 1
  %45 = load i64, ptr %44, align 8, !tbaa !25
  %46 = urem i64 %42, %45
  store i64 %46, ptr %9, align 8, !tbaa !10
  %47 = load ptr, ptr %4, align 8, !tbaa !22
  %48 = getelementptr inbounds nuw %struct.ring_buf, ptr %47, i32 0, i32 1
  %49 = load i64, ptr %48, align 8, !tbaa !25
  %50 = load i64, ptr %9, align 8, !tbaa !10
  %51 = sub i64 %49, %50
  store i64 %51, ptr %10, align 8, !tbaa !10
  %52 = load i64, ptr %6, align 8, !tbaa !10
  %53 = load i64, ptr %10, align 8, !tbaa !10
  %54 = icmp ult i64 %52, %53
  br i1 %54, label %55, label %57

55:                                               ; preds = %39
  %56 = load i64, ptr %6, align 8, !tbaa !10
  store i64 %56, ptr %10, align 8, !tbaa !10
  br label %57

57:                                               ; preds = %55, %39
  %58 = load ptr, ptr %11, align 8, !tbaa !29
  %59 = load i64, ptr %9, align 8, !tbaa !10
  %60 = getelementptr inbounds nuw i8, ptr %58, i64 %59
  %61 = load ptr, ptr %5, align 8, !tbaa !29
  %62 = load i64, ptr %10, align 8, !tbaa !10
  call void @llvm.memcpy.p0.p0.i64(ptr align 1 %60, ptr align 1 %61, i64 %62, i1 false)
  %63 = load i64, ptr %10, align 8, !tbaa !10
  %64 = load ptr, ptr %4, align 8, !tbaa !22
  %65 = getelementptr inbounds nuw %struct.ring_buf, ptr %64, i32 0, i32 2
  %66 = load i64, ptr %65, align 8, !tbaa !27
  %67 = add i64 %66, %63
  store i64 %67, ptr %65, align 8, !tbaa !27
  %68 = load i64, ptr %10, align 8, !tbaa !10
  %69 = load ptr, ptr %5, align 8, !tbaa !29
  %70 = getelementptr inbounds nuw i8, ptr %69, i64 %68
  store ptr %70, ptr %5, align 8, !tbaa !29
  %71 = load i64, ptr %10, align 8, !tbaa !10
  %72 = load i64, ptr %6, align 8, !tbaa !10
  %73 = sub i64 %72, %71
  store i64 %73, ptr %6, align 8, !tbaa !10
  %74 = load i64, ptr %10, align 8, !tbaa !10
  %75 = load i64, ptr %7, align 8, !tbaa !10
  %76 = add i64 %75, %74
  store i64 %76, ptr %7, align 8, !tbaa !10
  br label %15

77:                                               ; preds = %38
  %78 = load i64, ptr %7, align 8, !tbaa !10
  call void @llvm.lifetime.end.p0(i64 8, ptr %11) #8
  call void @llvm.lifetime.end.p0(i64 8, ptr %10) #8
  call void @llvm.lifetime.end.p0(i64 8, ptr %9) #8
  call void @llvm.lifetime.end.p0(i64 8, ptr %8) #8
  call void @llvm.lifetime.end.p0(i64 8, ptr %7) #8
  ret i64 %78
}

; Function Attrs: inlinehint nounwind uwtable
define internal i32 @ring_buf_get_buf_at(ptr noundef %0, i64 noundef %1, ptr noundef %2, ptr noundef %3) #3 {
  %5 = alloca i32, align 4
  %6 = alloca ptr, align 8
  %7 = alloca i64, align 8
  %8 = alloca ptr, align 8
  %9 = alloca ptr, align 8
  %10 = alloca ptr, align 8
  %11 = alloca i64, align 8
  %12 = alloca i64, align 8
  %13 = alloca i32, align 4
  store ptr %0, ptr %6, align 8, !tbaa !22
  store i64 %1, ptr %7, align 8, !tbaa !10
  store ptr %2, ptr %8, align 8, !tbaa !45
  store ptr %3, ptr %9, align 8, !tbaa !36
  call void @llvm.lifetime.start.p0(i64 8, ptr %10) #8
  %14 = load ptr, ptr %6, align 8, !tbaa !22
  %15 = getelementptr inbounds nuw %struct.ring_buf, ptr %14, i32 0, i32 0
  %16 = load ptr, ptr %15, align 8, !tbaa !24
  store ptr %16, ptr %10, align 8, !tbaa !29
  call void @llvm.lifetime.start.p0(i64 8, ptr %11) #8
  call void @llvm.lifetime.start.p0(i64 8, ptr %12) #8
  %17 = load i64, ptr %7, align 8, !tbaa !10
  %18 = load ptr, ptr %6, align 8, !tbaa !22
  %19 = getelementptr inbounds nuw %struct.ring_buf, ptr %18, i32 0, i32 2
  %20 = load i64, ptr %19, align 8, !tbaa !27
  %21 = icmp ugt i64 %17, %20
  br i1 %21, label %28, label %22

22:                                               ; preds = %4
  %23 = load i64, ptr %7, align 8, !tbaa !10
  %24 = load ptr, ptr %6, align 8, !tbaa !22
  %25 = getelementptr inbounds nuw %struct.ring_buf, ptr %24, i32 0, i32 3
  %26 = load i64, ptr %25, align 8, !tbaa !26
  %27 = icmp ult i64 %23, %26
  br i1 %27, label %28, label %29

28:                                               ; preds = %22, %4
  store i32 0, ptr %5, align 4
  store i32 1, ptr %13, align 4
  br label %68

29:                                               ; preds = %22
  %30 = load ptr, ptr %6, align 8, !tbaa !22
  %31 = getelementptr inbounds nuw %struct.ring_buf, ptr %30, i32 0, i32 1
  %32 = load i64, ptr %31, align 8, !tbaa !25
  %33 = icmp eq i64 %32, 0
  br i1 %33, label %34, label %37

34:                                               ; preds = %29
  %35 = load ptr, ptr %8, align 8, !tbaa !45
  store ptr null, ptr %35, align 8, !tbaa !29
  %36 = load ptr, ptr %9, align 8, !tbaa !36
  store i64 0, ptr %36, align 8, !tbaa !10
  store i32 1, ptr %5, align 4
  store i32 1, ptr %13, align 4
  br label %68

37:                                               ; preds = %29
  %38 = load i64, ptr %7, align 8, !tbaa !10
  %39 = load ptr, ptr %6, align 8, !tbaa !22
  %40 = getelementptr inbounds nuw %struct.ring_buf, ptr %39, i32 0, i32 1
  %41 = load i64, ptr %40, align 8, !tbaa !25
  %42 = urem i64 %38, %41
  store i64 %42, ptr %11, align 8, !tbaa !10
  %43 = load ptr, ptr %6, align 8, !tbaa !22
  %44 = getelementptr inbounds nuw %struct.ring_buf, ptr %43, i32 0, i32 2
  %45 = load i64, ptr %44, align 8, !tbaa !27
  %46 = load i64, ptr %7, align 8, !tbaa !10
  %47 = sub i64 %45, %46
  store i64 %47, ptr %12, align 8, !tbaa !10
  %48 = load i64, ptr %12, align 8, !tbaa !10
  %49 = load ptr, ptr %6, align 8, !tbaa !22
  %50 = getelementptr inbounds nuw %struct.ring_buf, ptr %49, i32 0, i32 1
  %51 = load i64, ptr %50, align 8, !tbaa !25
  %52 = load i64, ptr %11, align 8, !tbaa !10
  %53 = sub i64 %51, %52
  %54 = icmp ugt i64 %48, %53
  br i1 %54, label %55, label %61

55:                                               ; preds = %37
  %56 = load ptr, ptr %6, align 8, !tbaa !22
  %57 = getelementptr inbounds nuw %struct.ring_buf, ptr %56, i32 0, i32 1
  %58 = load i64, ptr %57, align 8, !tbaa !25
  %59 = load i64, ptr %11, align 8, !tbaa !10
  %60 = sub i64 %58, %59
  store i64 %60, ptr %12, align 8, !tbaa !10
  br label %61

61:                                               ; preds = %55, %37
  %62 = load ptr, ptr %10, align 8, !tbaa !29
  %63 = load i64, ptr %11, align 8, !tbaa !10
  %64 = getelementptr inbounds nuw i8, ptr %62, i64 %63
  %65 = load ptr, ptr %8, align 8, !tbaa !45
  store ptr %64, ptr %65, align 8, !tbaa !29
  %66 = load i64, ptr %12, align 8, !tbaa !10
  %67 = load ptr, ptr %9, align 8, !tbaa !36
  store i64 %66, ptr %67, align 8, !tbaa !10
  store i32 1, ptr %5, align 4
  store i32 1, ptr %13, align 4
  br label %68

68:                                               ; preds = %61, %34, %28
  call void @llvm.lifetime.end.p0(i64 8, ptr %12) #8
  call void @llvm.lifetime.end.p0(i64 8, ptr %11) #8
  call void @llvm.lifetime.end.p0(i64 8, ptr %10) #8
  %69 = load i32, ptr %5, align 4
  ret i32 %69
}

; Function Attrs: inlinehint nounwind uwtable
define internal i64 @ring_buf_used(ptr noundef %0) #3 {
  %2 = alloca ptr, align 8
  store ptr %0, ptr %2, align 8, !tbaa !22
  %3 = load ptr, ptr %2, align 8, !tbaa !22
  %4 = getelementptr inbounds nuw %struct.ring_buf, ptr %3, i32 0, i32 2
  %5 = load i64, ptr %4, align 8, !tbaa !27
  %6 = load ptr, ptr %2, align 8, !tbaa !22
  %7 = getelementptr inbounds nuw %struct.ring_buf, ptr %6, i32 0, i32 3
  %8 = load i64, ptr %7, align 8, !tbaa !26
  %9 = sub i64 %5, %8
  ret i64 %9
}

; Function Attrs: inlinehint nounwind uwtable
define internal i32 @ring_buf_resize(ptr noundef %0, i64 noundef %1, i32 noundef %2) #3 {
  %4 = alloca i32, align 4
  %5 = alloca ptr, align 8
  %6 = alloca i64, align 8
  %7 = alloca i32, align 4
  %8 = alloca %struct.ring_buf, align 8
  %9 = alloca ptr, align 8
  %10 = alloca i64, align 8
  %11 = alloca i64, align 8
  %12 = alloca i32, align 4
  store ptr %0, ptr %5, align 8, !tbaa !22
  store i64 %1, ptr %6, align 8, !tbaa !10
  store i32 %2, ptr %7, align 4, !tbaa !28
  call void @llvm.lifetime.start.p0(i64 32, ptr %8) #8
  call void @llvm.memset.p0.i64(ptr align 8 %8, i8 0, i64 32, i1 false)
  call void @llvm.lifetime.start.p0(i64 8, ptr %9) #8
  store ptr null, ptr %9, align 8, !tbaa !29
  call void @llvm.lifetime.start.p0(i64 8, ptr %10) #8
  store i64 0, ptr %10, align 8, !tbaa !10
  call void @llvm.lifetime.start.p0(i64 8, ptr %11) #8
  store i64 0, ptr %11, align 8, !tbaa !10
  %13 = load i64, ptr %6, align 8, !tbaa !10
  %14 = load ptr, ptr %5, align 8, !tbaa !22
  %15 = getelementptr inbounds nuw %struct.ring_buf, ptr %14, i32 0, i32 1
  %16 = load i64, ptr %15, align 8, !tbaa !25
  %17 = icmp eq i64 %13, %16
  br i1 %17, label %18, label %19

18:                                               ; preds = %3
  store i32 1, ptr %4, align 4
  store i32 1, ptr %12, align 4
  br label %83

19:                                               ; preds = %3
  %20 = load i64, ptr %6, align 8, !tbaa !10
  %21 = load ptr, ptr %5, align 8, !tbaa !22
  %22 = call i64 @ring_buf_used(ptr noundef %21)
  %23 = icmp ult i64 %20, %22
  br i1 %23, label %24, label %25

24:                                               ; preds = %19
  store i32 0, ptr %4, align 4
  store i32 1, ptr %12, align 4
  br label %83

25:                                               ; preds = %19
  %26 = load i64, ptr %6, align 8, !tbaa !10
  %27 = call noalias ptr @CRYPTO_malloc(i64 noundef %26, ptr noundef @.str.1, i32 noundef 244)
  %28 = getelementptr inbounds nuw %struct.ring_buf, ptr %8, i32 0, i32 0
  store ptr %27, ptr %28, align 8, !tbaa !24
  %29 = getelementptr inbounds nuw %struct.ring_buf, ptr %8, i32 0, i32 0
  %30 = load ptr, ptr %29, align 8, !tbaa !24
  %31 = icmp eq ptr %30, null
  br i1 %31, label %32, label %33

32:                                               ; preds = %25
  store i32 0, ptr %4, align 4
  store i32 1, ptr %12, align 4
  br label %83

33:                                               ; preds = %25
  %34 = load i64, ptr %6, align 8, !tbaa !10
  %35 = getelementptr inbounds nuw %struct.ring_buf, ptr %8, i32 0, i32 1
  store i64 %34, ptr %35, align 8, !tbaa !25
  %36 = load ptr, ptr %5, align 8, !tbaa !22
  %37 = getelementptr inbounds nuw %struct.ring_buf, ptr %36, i32 0, i32 2
  %38 = load i64, ptr %37, align 8, !tbaa !27
  %39 = load ptr, ptr %5, align 8, !tbaa !22
  %40 = call i64 @ring_buf_used(ptr noundef %39)
  %41 = sub i64 %38, %40
  %42 = getelementptr inbounds nuw %struct.ring_buf, ptr %8, i32 0, i32 2
  store i64 %41, ptr %42, align 8, !tbaa !27
  %43 = getelementptr inbounds nuw %struct.ring_buf, ptr %8, i32 0, i32 2
  %44 = load i64, ptr %43, align 8, !tbaa !27
  %45 = getelementptr inbounds nuw %struct.ring_buf, ptr %8, i32 0, i32 3
  store i64 %44, ptr %45, align 8, !tbaa !26
  br label %46

46:                                               ; preds = %71, %33
  %47 = load ptr, ptr %5, align 8, !tbaa !22
  %48 = load ptr, ptr %5, align 8, !tbaa !22
  %49 = getelementptr inbounds nuw %struct.ring_buf, ptr %48, i32 0, i32 3
  %50 = load i64, ptr %49, align 8, !tbaa !26
  %51 = load i64, ptr %11, align 8, !tbaa !10
  %52 = add i64 %50, %51
  %53 = call i32 @ring_buf_get_buf_at(ptr noundef %47, i64 noundef %52, ptr noundef %9, ptr noundef %10)
  %54 = icmp ne i32 %53, 0
  br i1 %54, label %58, label %55

55:                                               ; preds = %46
  %56 = getelementptr inbounds nuw %struct.ring_buf, ptr %8, i32 0, i32 0
  %57 = load ptr, ptr %56, align 8, !tbaa !24
  call void @CRYPTO_free(ptr noundef %57, ptr noundef @.str.1, i32 noundef 254)
  store i32 0, ptr %4, align 4
  store i32 1, ptr %12, align 4
  br label %83

58:                                               ; preds = %46
  %59 = load i64, ptr %10, align 8, !tbaa !10
  %60 = icmp eq i64 %59, 0
  br i1 %60, label %61, label %62

61:                                               ; preds = %58
  br label %75

62:                                               ; preds = %58
  %63 = load ptr, ptr %9, align 8, !tbaa !29
  %64 = load i64, ptr %10, align 8, !tbaa !10
  %65 = call i64 @ring_buf_push(ptr noundef %8, ptr noundef %63, i64 noundef %64)
  %66 = load i64, ptr %10, align 8, !tbaa !10
  %67 = icmp ne i64 %65, %66
  br i1 %67, label %68, label %71

68:                                               ; preds = %62
  %69 = getelementptr inbounds nuw %struct.ring_buf, ptr %8, i32 0, i32 0
  %70 = load ptr, ptr %69, align 8, !tbaa !24
  call void @CRYPTO_free(ptr noundef %70, ptr noundef @.str.1, i32 noundef 262)
  store i32 0, ptr %4, align 4
  store i32 1, ptr %12, align 4
  br label %83

71:                                               ; preds = %62
  %72 = load i64, ptr %10, align 8, !tbaa !10
  %73 = load i64, ptr %11, align 8, !tbaa !10
  %74 = add i64 %73, %72
  store i64 %74, ptr %11, align 8, !tbaa !10
  br label %46

75:                                               ; preds = %61
  %76 = load ptr, ptr %5, align 8, !tbaa !22
  %77 = getelementptr inbounds nuw %struct.ring_buf, ptr %76, i32 0, i32 3
  %78 = load i64, ptr %77, align 8, !tbaa !26
  %79 = getelementptr inbounds nuw %struct.ring_buf, ptr %8, i32 0, i32 3
  store i64 %78, ptr %79, align 8, !tbaa !26
  %80 = load ptr, ptr %5, align 8, !tbaa !22
  %81 = load i32, ptr %7, align 4, !tbaa !28
  call void @ring_buf_destroy(ptr noundef %80, i32 noundef %81)
  %82 = load ptr, ptr %5, align 8, !tbaa !22
  call void @llvm.memcpy.p0.p0.i64(ptr align 8 %82, ptr align 8 %8, i64 32, i1 false)
  store i32 1, ptr %4, align 4
  store i32 1, ptr %12, align 4
  br label %83

83:                                               ; preds = %75, %68, %55, %32, %24, %18
  call void @llvm.lifetime.end.p0(i64 8, ptr %11) #8
  call void @llvm.lifetime.end.p0(i64 8, ptr %10) #8
  call void @llvm.lifetime.end.p0(i64 8, ptr %9) #8
  call void @llvm.lifetime.end.p0(i64 32, ptr %8) #8
  %84 = load i32, ptr %4, align 4
  ret i32 %84
}