; Function Attrs: inlinehint nounwind uwtable
define internal fastcc range(i32 0, 2) i32 @ring_buf_resize(ptr noundef captures(none) %0, i64 noundef %1, i32 noundef %2) unnamed_addr #3 {
  %4 = getelementptr inbounds nuw i8, ptr %0, i64 8
  %5 = load i64, ptr %4, align 8, !tbaa !17
  %6 = icmp eq i64 %1, %5
  br i1 %6, label %49, label %7

7:                                                ; preds = %3
  %8 = getelementptr i8, ptr %0, i64 16
  %.val = load i64, ptr %8, align 8, !tbaa !18
  %9 = getelementptr i8, ptr %0, i64 24
  %.val21 = load i64, ptr %9, align 8, !tbaa !19
  %10 = sub i64 %.val, %.val21
  %11 = icmp ult i64 %1, %10
  br i1 %11, label %49, label %12

12:                                               ; preds = %7
  %13 = tail call noalias ptr @CRYPTO_malloc(i64 noundef %1, ptr noundef nonnull @.str.1, i32 noundef 244) #10
  %14 = icmp eq ptr %13, null
  br i1 %14, label %49, label %15

15:                                               ; preds = %12
  %16 = load i64, ptr %8, align 8, !tbaa !18
  %.val23 = load i64, ptr %9, align 8, !tbaa !19
  %17 = load ptr, ptr %0, align 8, !tbaa !20
  %18 = icmp ugt i64 %.val23, %16
  br i1 %18, label %._crit_edge, label %.lr.ph

.lr.ph:                                           ; preds = %15
  %19 = load i64, ptr %4, align 8, !tbaa !17
  %20 = icmp eq i64 %19, 0
  %.neg.i38.i = add i64 %.val23, %1
  br i1 %20, label %ring_buf_get_buf_at.exit.thread41, label %ring_buf_get_buf_at.exit

21:                                               ; preds = %ring_buf_push.exit
  %22 = add i64 %spec.select.i, %.052
  %23 = add i64 %22, %.val23
  %24 = icmp ugt i64 %23, %16
  %25 = icmp ult i64 %23, %.val23
  %or.cond = or i1 %24, %25
  br i1 %or.cond, label %._crit_edge, label %ring_buf_get_buf_at.exit

ring_buf_get_buf_at.exit:                         ; preds = %.lr.ph, %21
  %.052 = phi i64 [ %22, %21 ], [ 0, %.lr.ph ]
  %.sroa.11.051 = phi i64 [ %.sroa.11.2, %21 ], [ %.val23, %.lr.ph ]
  %26 = add i64 %.052, %.val23
  %27 = urem i64 %26, %19
  %28 = sub i64 %16, %26
  %29 = sub i64 %19, %27
  %spec.select.i = tail call i64 @llvm.umin.i64(i64 %28, i64 %29)
  %30 = icmp eq i64 %spec.select.i, 0
  br i1 %30, label %ring_buf_get_buf_at.exit.thread41, label %31

._crit_edge:                                      ; preds = %21, %15
  tail call void @CRYPTO_free(ptr noundef nonnull %13, ptr noundef nonnull @.str.1, i32 noundef 254) #10
  br label %49

31:                                               ; preds = %ring_buf_get_buf_at.exit
  %32 = sub i64 %.neg.i38.i, %.sroa.11.051
  %spec.select39.i = tail call i64 @llvm.umin.i64(i64 range(i64 1, 0) %spec.select.i, i64 %32)
  %33 = sub i64 4611686018427387904, %.sroa.11.051
  %.240.i = tail call i64 @llvm.umin.i64(i64 %spec.select39.i, i64 %33)
  %34 = icmp eq i64 %.240.i, 0
  br i1 %34, label %ring_buf_push.exit, label %.lr.ph.i.preheader

.lr.ph.i.preheader:                               ; preds = %31
  %35 = getelementptr inbounds nuw i8, ptr %17, i64 %27
  br label %.lr.ph.i

.lr.ph.i:                                         ; preds = %.lr.ph.i.preheader, %.lr.ph.i
  %.sroa.11.1 = phi i64 [ %39, %.lr.ph.i ], [ %.sroa.11.051, %.lr.ph.i.preheader ]
  %.244.i = phi i64 [ %.2.i, %.lr.ph.i ], [ %.240.i, %.lr.ph.i.preheader ]
  %.042.i = phi ptr [ %40, %.lr.ph.i ], [ %35, %.lr.ph.i.preheader ]
  %.03041.i = phi i64 [ %42, %.lr.ph.i ], [ 0, %.lr.ph.i.preheader ]
  %36 = urem i64 %.sroa.11.1, %1
  %37 = sub i64 %1, %36
  %spec.select34.i = tail call i64 @llvm.umin.i64(i64 %.244.i, i64 %37)
  %38 = getelementptr inbounds nuw i8, ptr %13, i64 %36
  tail call void @llvm.memcpy.p0.p0.i64(ptr nonnull align 1 %38, ptr align 1 %.042.i, i64 %spec.select34.i, i1 false)
  %39 = add i64 %spec.select34.i, %.sroa.11.1
  %40 = getelementptr inbounds nuw i8, ptr %.042.i, i64 %spec.select34.i
  %41 = sub i64 %.244.i, %spec.select34.i
  %42 = add i64 %spec.select34.i, %.03041.i
  %43 = sub i64 %.neg.i38.i, %39
  %spec.select.i24 = tail call i64 @llvm.umin.i64(i64 %41, i64 %43)
  %44 = sub i64 4611686018427387904, %39
  %.2.i = tail call i64 @llvm.umin.i64(i64 %spec.select.i24, i64 %44)
  %45 = icmp eq i64 %.2.i, 0
  br i1 %45, label %ring_buf_push.exit, label %.lr.ph.i

ring_buf_push.exit:                               ; preds = %.lr.ph.i, %31
  %.sroa.11.2 = phi i64 [ %.sroa.11.051, %31 ], [ %39, %.lr.ph.i ]
  %.030.lcssa.i = phi i64 [ 0, %31 ], [ %42, %.lr.ph.i ]
  %.not20 = icmp eq i64 %.030.lcssa.i, %spec.select.i
  br i1 %.not20, label %21, label %46

46:                                               ; preds = %ring_buf_push.exit
  tail call void @CRYPTO_free(ptr noundef nonnull %13, ptr noundef nonnull @.str.1, i32 noundef 262) #10
  br label %49

ring_buf_get_buf_at.exit.thread41:                ; preds = %ring_buf_get_buf_at.exit, %.lr.ph
  %.us-phi = phi i64 [ %.val23, %.lr.ph ], [ %.sroa.11.051, %ring_buf_get_buf_at.exit ]
  %.not.i = icmp eq i32 %2, 0
  br i1 %.not.i, label %48, label %47

47:                                               ; preds = %ring_buf_get_buf_at.exit.thread41
  tail call void @CRYPTO_clear_free(ptr noundef %17, i64 noundef %19, ptr noundef nonnull @.str.1, i32 noundef 58) #10
  br label %ring_buf_destroy.exit

48:                                               ; preds = %ring_buf_get_buf_at.exit.thread41
  tail call void @CRYPTO_free(ptr noundef %17, ptr noundef nonnull @.str.1, i32 noundef 60) #10
  br label %ring_buf_destroy.exit

ring_buf_destroy.exit:                            ; preds = %47, %48
  store ptr %13, ptr %0, align 8
  store i64 %1, ptr %4, align 8
  store i64 %.us-phi, ptr %8, align 8
  store i64 %.val23, ptr %9, align 8
  br label %49

49:                                               ; preds = %12, %7, %3, %ring_buf_destroy.exit, %46, %._crit_edge
  %.016 = phi i32 [ 1, %ring_buf_destroy.exit ], [ 0, %46 ], [ 0, %._crit_edge ], [ 1, %3 ], [ 0, %7 ], [ 0, %12 ]
  ret i32 %.016
}